; Function Attrs: mustprogress null_pointer_is_valid sspstrong uwtable
define noundef ptr @_ZN18TapParameterDialog26showTapParameterStatisticsER7QWidgetR11CaptureFile7QStringS4_Pv(ptr noundef align 8 dereferenceable(40) %0, ptr noundef align 8 dereferenceable(48) %1, ptr noundef %2, ptr noundef readonly captures(none) %3, ptr noundef readnone captures(none) %4) local_unnamed_addr #3 align 2 personality ptr @__gxx_personality_v0 {
  %6 = alloca %class.QString, align 8
  %7 = alloca %class.QString, align 8
  %8 = load ptr, ptr @_ZL19cfg_str_to_creator_, align 8
  %.not.i = icmp eq ptr %8, null
  br i1 %.not.i, label %_ZN7QStringD2Ev.exit11, label %_ZNK5QHashIK7QStringPFP18TapParameterDialogR7QWidgetS0_S0_R11CaptureFileEE8containsERS1_.exit

_ZNK5QHashIK7QStringPFP18TapParameterDialogR7QWidgetS0_S0_R11CaptureFileEE8containsERS1_.exit: ; preds = %5
  %9 = tail call noundef ptr @_ZNK12QHashPrivate4DataINS_4NodeIK7QStringPFP18TapParameterDialogR7QWidgetS2_S2_R11CaptureFileEEEE8findNodeERS3_(ptr noundef nonnull align 8 dereferenceable_or_null(40) %8, ptr noundef align 8 dereferenceable(24) %2) #31
  %.not = icmp eq ptr %9, null
  br i1 %.not, label %_ZN7QStringD2Ev.exit11, label %10

10:                                               ; preds = %_ZNK5QHashIK7QStringPFP18TapParameterDialogR7QWidgetS0_S0_R11CaptureFileEE8containsERS1_.exit
  %11 = tail call noundef align 8 dereferenceable(8) ptr @_ZN5QHashIK7QStringPFP18TapParameterDialogR7QWidgetS0_S0_R11CaptureFileEEixERS1_(ptr noundef nonnull align 8 dereferenceable_or_null(8) @_ZL19cfg_str_to_creator_, ptr noundef align 8 dereferenceable(24) %2)
  %12 = load ptr, ptr %11, align 8
  %13 = load ptr, ptr %2, align 8
  store ptr %13, ptr %6, align 8
  %14 = getelementptr inbounds nuw i8, ptr %6, i64 8
  %15 = getelementptr inbounds nuw i8, ptr %2, i64 8
  %16 = load ptr, ptr %15, align 8
  store ptr %16, ptr %14, align 8
  %17 = getelementptr inbounds nuw i8, ptr %6, i64 16
  %18 = getelementptr inbounds nuw i8, ptr %2, i64 16
  %19 = load i64, ptr %18, align 8
  store i64 %19, ptr %17, align 8
  %.not.i.i.i = icmp eq ptr %13, null
  br i1 %.not.i.i.i, label %_ZN7QStringC2ERKS_.exit, label %20

20:                                               ; preds = %10
  %21 = atomicrmw add ptr %13, i32 1 seq_cst, align 4
  br label %_ZN7QStringC2ERKS_.exit

_ZN7QStringC2ERKS_.exit:                          ; preds = %10, %20
  %22 = load ptr, ptr %3, align 8
  store ptr %22, ptr %7, align 8
  %23 = getelementptr inbounds nuw i8, ptr %7, i64 8
  %24 = getelementptr inbounds nuw i8, ptr %3, i64 8
  %25 = load ptr, ptr %24, align 8
  store ptr %25, ptr %23, align 8
  %26 = getelementptr inbounds nuw i8, ptr %7, i64 16
  %27 = getelementptr inbounds nuw i8, ptr %3, i64 16
  %28 = load i64, ptr %27, align 8
  store i64 %28, ptr %26, align 8
  %.not.i.i.i5 = icmp eq ptr %22, null
  br i1 %.not.i.i.i5, label %_ZN7QStringC2ERKS_.exit6, label %29

29:                                               ; preds = %_ZN7QStringC2ERKS_.exit
  %30 = atomicrmw add ptr %22, i32 1 seq_cst, align 4
  br label %_ZN7QStringC2ERKS_.exit6

_ZN7QStringC2ERKS_.exit6:                         ; preds = %_ZN7QStringC2ERKS_.exit, %29
  %31 = invoke noundef ptr %12(ptr noundef align 8 dereferenceable(40) %0, ptr noundef nonnull %6, ptr noundef nonnull %7, ptr noundef align 8 dereferenceable(48) %1)
          to label %32 unwind label %41

32:                                               ; preds = %_ZN7QStringC2ERKS_.exit6
  %33 = load ptr, ptr %7, align 8
  %.not.i.i.i7 = icmp eq ptr %33, null
  br i1 %.not.i.i.i7, label %_ZN7QStringD2Ev.exit, label %_ZN17QArrayDataPointerIDsE5derefEv.exit.i.i

_ZN17QArrayDataPointerIDsE5derefEv.exit.i.i:      ; preds = %32
  %34 = atomicrmw sub ptr %33, i32 1 seq_cst, align 4
  %.not.i.i = icmp eq i32 %34, 1
  br i1 %.not.i.i, label %35, label %_ZN7QStringD2Ev.exit

35:                                               ; preds = %_ZN17QArrayDataPointerIDsE5derefEv.exit.i.i
  %36 = load ptr, ptr %7, align 8
  call void @_ZN10QArrayData10deallocateEPS_xx(ptr noundef %36, i64 noundef 2, i64 noundef 8) #31
  br label %_ZN7QStringD2Ev.exit

_ZN7QStringD2Ev.exit:                             ; preds = %32, %_ZN17QArrayDataPointerIDsE5derefEv.exit.i.i, %35
  %37 = load ptr, ptr %6, align 8
  %.not.i.i.i8 = icmp eq ptr %37, null
  br i1 %.not.i.i.i8, label %_ZN7QStringD2Ev.exit11, label %_ZN17QArrayDataPointerIDsE5derefEv.exit.i.i9

_ZN17QArrayDataPointerIDsE5derefEv.exit.i.i9:     ; preds = %_ZN7QStringD2Ev.exit
  %38 = atomicrmw sub ptr %37, i32 1 seq_cst, align 4
  %.not.i.i10 = icmp eq i32 %38, 1
  br i1 %.not.i.i10, label %39, label %_ZN7QStringD2Ev.exit11

39:                                               ; preds = %_ZN17QArrayDataPointerIDsE5derefEv.exit.i.i9
  %40 = load ptr, ptr %6, align 8
  call void @_ZN10QArrayData10deallocateEPS_xx(ptr noundef %40, i64 noundef 2, i64 noundef 8) #31
  br label %_ZN7QStringD2Ev.exit11

41:                                               ; preds = %_ZN7QStringC2ERKS_.exit6
  %42 = landingpad { ptr, i32 }
          cleanup
  %43 = load ptr, ptr %7, align 8
  %.not.i.i.i12 = icmp eq ptr %43, null
  br i1 %.not.i.i.i12, label %_ZN7QStringD2Ev.exit15, label %_ZN17QArrayDataPointerIDsE5derefEv.exit.i.i13

_ZN17QArrayDataPointerIDsE5derefEv.exit.i.i13:    ; preds = %41
  %44 = atomicrmw sub ptr %43, i32 1 seq_cst, align 4
  %.not.i.i14 = icmp eq i32 %44, 1
  br i1 %.not.i.i14, label %45, label %_ZN7QStringD2Ev.exit15

45:                                               ; preds = %_ZN17QArrayDataPointerIDsE5derefEv.exit.i.i13
  %46 = load ptr, ptr %7, align 8
  call void @_ZN10QArrayData10deallocateEPS_xx(ptr noundef %46, i64 noundef 2, i64 noundef 8) #31
  br label %_ZN7QStringD2Ev.exit15

_ZN7QStringD2Ev.exit15:                           ; preds = %41, %_ZN17QArrayDataPointerIDsE5derefEv.exit.i.i13, %45
  %47 = load ptr, ptr %6, align 8
  %.not.i.i.i16 = icmp eq ptr %47, null
  br i1 %.not.i.i.i16, label %_ZN7QStringD2Ev.exit19, label %_ZN17QArrayDataPointerIDsE5derefEv.exit.i.i17

_ZN17QArrayDataPointerIDsE5derefEv.exit.i.i17:    ; preds = %_ZN7QStringD2Ev.exit15
  %48 = atomicrmw sub ptr %47, i32 1 seq_cst, align 4
  %.not.i.i18 = icmp eq i32 %48, 1
  br i1 %.not.i.i18, label %49, label %_ZN7QStringD2Ev.exit19

49:                                               ; preds = %_ZN17QArrayDataPointerIDsE5derefEv.exit.i.i17
  %50 = load ptr, ptr %6, align 8
  call void @_ZN10QArrayData10deallocateEPS_xx(ptr noundef %50, i64 noundef 2, i64 noundef 8) #31
  br label %_ZN7QStringD2Ev.exit19

_ZN7QStringD2Ev.exit19:                           ; preds = %_ZN7QStringD2Ev.exit15, %_ZN17QArrayDataPointerIDsE5derefEv.exit.i.i17, %49
  resume { ptr, i32 } %42

_ZN7QStringD2Ev.exit11:                           ; preds = %5, %39, %_ZN17QArrayDataPointerIDsE5derefEv.exit.i.i9, %_ZN7QStringD2Ev.exit, %_ZNK5QHashIK7QStringPFP18TapParameterDialogR7QWidgetS0_S0_R11CaptureFileEE8containsERS1_.exit
  %.0 = phi ptr [ null, %_ZNK5QHashIK7QStringPFP18TapParameterDialogR7QWidgetS0_S0_R11CaptureFileEE8containsERS1_.exit ], [ %31, %_ZN7QStringD2Ev.exit ], [ %31, %_ZN17QArrayDataPointerIDsE5derefEv.exit.i.i9 ], [ %31, %39 ], [ null, %5 ]
  ret ptr %.0
}